target datalayout = "e-m:e-p270:32:32-p271:32:32-p272:64:64-i64:64-i128:128-f80:128-n8:16:32:64-S128"
target triple = "x86_64-pc-linux-gnu"

%struct.H5CX_node_t = type { %struct.H5CX_t, ptr }
%struct.H5CX_t = type { i64, ptr, i64, ptr, i64, ptr, i64, ptr, i64, ptr, i64, ptr, i64, i32, i64, i8, ptr, i8, ptr, i8, i32, i8, [3 x double], i8, i64, i8, i32, i8, %struct.H5Z_cb_t, i8, ptr, i8, %struct.H5T_vlen_alloc_info_t, i8, %struct.H5T_conv_cb_t, i8, i32, i8, i8, i8, i32, i8, i8, i32, i8, i8, i32, i8, i32, i8, i64, i8, i8, i8, i8, i8, ptr, i8, ptr, i8, i32, i8, i32, i8, %struct.H5VL_connector_prop_t, i8, ptr, i8 }
%struct.H5Z_cb_t = type { ptr, ptr }
%struct.H5T_vlen_alloc_info_t = type { ptr, ptr, ptr, ptr }
%struct.H5T_conv_cb_t = type { ptr, ptr }
%struct.H5VL_connector_prop_t = type { ptr, ptr }

@H5_libinit_g = external global i8, align 1
@H5_libterm_g = external global i8, align 1
@.str = private unnamed_addr constant [97 x i8] c"generated/home/dtcxzyw/WorkSpace/Projects/compilers/llvm-opt-benchmark/bench/hdf5/hdf5/src/H5G.c\00", align 1
@__func__.H5Gcreate2 = private unnamed_addr constant [11 x i8] c"H5Gcreate2\00", align 1
@H5E_FUNC_g = external global i64, align 8
@H5E_CANTINIT_g = external global i64, align 8
@.str.1 = private unnamed_addr constant [30 x i8] c"library initialization failed\00", align 1
@H5G_init_g = external global i8, align 1
@.str.2 = private unnamed_addr constant [32 x i8] c"interface initialization failed\00", align 1
@H5E_CANTSET_g = external global i64, align 8
@.str.3 = private unnamed_addr constant [22 x i8] c"can't set API context\00", align 1
@H5E_SYM_g = external global i64, align 8
@H5E_CANTCREATE_g = external global i64, align 8
@.str.4 = private unnamed_addr constant [37 x i8] c"unable to synchronously create group\00", align 1

; Function Attrs: nounwind uwtable
define i64 @H5Gcreate2(i64 noundef %0, ptr noundef %1, i64 noundef %2, i64 noundef %3, i64 noundef %4) #0 {
  %6 = alloca i64, align 8
  %7 = alloca ptr, align 8
  %8 = alloca i64, align 8
  %9 = alloca i64, align 8
  %10 = alloca i64, align 8
  %11 = alloca i64, align 8
  %12 = alloca %struct.H5CX_node_t, align 8
  %13 = alloca i8, align 1
  %14 = alloca i8, align 1
  store i64 %0, ptr %6, align 8, !tbaa !3
  store ptr %1, ptr %7, align 8, !tbaa !7
  store i64 %2, ptr %8, align 8, !tbaa !3
  store i64 %3, ptr %9, align 8, !tbaa !3
  store i64 %4, ptr %10, align 8, !tbaa !3
  call void @llvm.lifetime.start.p0(i64 8, ptr %11) #5
  store i64 -1, ptr %11, align 8, !tbaa !3
  call void @llvm.lifetime.start.p0(i64 480, ptr %12) #5
  call void @llvm.memset.p0.i64(ptr align 8 %12, i8 0, i64 480, i1 false)
  call void @llvm.lifetime.start.p0(i64 1, ptr %13) #5
  store i8 0, ptr %13, align 1, !tbaa !10
  call void @llvm.lifetime.start.p0(i64 1, ptr %14) #5
  store i8 0, ptr %14, align 1, !tbaa !10
  br label %15

15:                                               ; preds = %5
  %16 = load i8, ptr @H5_libinit_g, align 1, !tbaa !10, !range !12, !noundef !13
  %17 = trunc i8 %16 to i1
  br i1 %17, label %22, label %18

18:                                               ; preds = %15
  %19 = load i8, ptr @H5_libterm_g, align 1, !tbaa !10, !range !12, !noundef !13
  %20 = trunc i8 %19 to i1
  %21 = xor i1 %20, true
  br label %22

22:                                               ; preds = %18, %15
  %23 = phi i1 [ false, %15 ], [ %21, %18 ]
  %24 = xor i1 %23, true
  %25 = xor i1 %24, true
  %26 = zext i1 %25 to i32
  %27 = sext i32 %26 to i64
  %28 = call i64 @llvm.expect.i64(i64 %27, i64 0)
  %29 = icmp ne i64 %28, 0
  br i1 %29, label %30, label %59

30:                                               ; preds = %22
  %31 = call i32 @H5_init_library()
  %32 = icmp slt i32 %31, 0
  %33 = xor i1 %32, true
  %34 = xor i1 %33, true
  %35 = zext i1 %34 to i32
  %36 = sext i32 %35 to i64
  %37 = call i64 @llvm.expect.i64(i64 %36, i64 0)
  %38 = icmp ne i64 %37, 0
  br i1 %38, label %39, label %58

39:                                               ; preds = %30
  br label %40

40:                                               ; preds = %39
  br label %41

41:                                               ; preds = %40
  br label %42

42:                                               ; preds = %41
  %43 = load i64, ptr @H5E_FUNC_g, align 8, !tbaa !3
  %44 = load i64, ptr @H5E_CANTINIT_g, align 8, !tbaa !3
  %45 = call i32 (ptr, ptr, i32, i64, i64, ptr, ...) @H5E_printf_stack(ptr noundef @.str, ptr noundef @__func__.H5Gcreate2, i32 noundef 226, i64 noundef %43, i64 noundef %44, ptr noundef @.str.1)
  br label %46

46:                                               ; preds = %42
  br label %47

47:                                               ; preds = %46
  store i8 1, ptr %14, align 1, !tbaa !10
  %48 = load i8, ptr %14, align 1, !tbaa !10, !range !12, !noundef !13
  %49 = trunc i8 %48 to i1
  %50 = zext i1 %49 to i8
  store i8 %50, ptr %14, align 1, !tbaa !10
  br label %51

51:                                               ; preds = %47
  br label %52

52:                                               ; preds = %51
  br label %53

53:                                               ; preds = %52
  store i64 -1, ptr %11, align 8, !tbaa !3
  br label %160

54:                                               ; No predecessors!
  br label %55

55:                                               ; preds = %54
  br label %56

56:                                               ; preds = %55
  br label %57

57:                                               ; preds = %56
  br label %58

58:                                               ; preds = %57, %30
  br label %59

59:                                               ; preds = %58, %22
  %60 = load i8, ptr @H5G_init_g, align 1, !tbaa !10, !range !12, !noundef !13
  %61 = trunc i8 %60 to i1
  br i1 %61, label %66, label %62

62:                                               ; preds = %59
  %63 = load i8, ptr @H5_libterm_g, align 1, !tbaa !10, !range !12, !noundef !13
  %64 = trunc i8 %63 to i1
  %65 = xor i1 %64, true
  br label %66

66:                                               ; preds = %62, %59
  %67 = phi i1 [ false, %59 ], [ %65, %62 ]
  %68 = xor i1 %67, true
  %69 = xor i1 %68, true
  %70 = zext i1 %69 to i32
  %71 = sext i32 %70 to i64
  %72 = call i64 @llvm.expect.i64(i64 %71, i64 0)
  %73 = icmp ne i64 %72, 0
  br i1 %73, label %74, label %97

74:                                               ; preds = %66
  store i8 1, ptr @H5G_init_g, align 1, !tbaa !10
  %75 = call i32 @H5G__init_package()
  %76 = icmp slt i32 %75, 0
  br i1 %76, label %77, label %96

77:                                               ; preds = %74
  store i8 0, ptr @H5G_init_g, align 1, !tbaa !10
  br label %78

78:                                               ; preds = %77
  br label %79

79:                                               ; preds = %78
  br label %80

80:                                               ; preds = %79
  %81 = load i64, ptr @H5E_FUNC_g, align 8, !tbaa !3
  %82 = load i64, ptr @H5E_CANTINIT_g, align 8, !tbaa !3
  %83 = call i32 (ptr, ptr, i32, i64, i64, ptr, ...) @H5E_printf_stack(ptr noundef @.str, ptr noundef @__func__.H5Gcreate2, i32 noundef 226, i64 noundef %81, i64 noundef %82, ptr noundef @.str.2)
  br label %84

84:                                               ; preds = %80
  br label %85

85:                                               ; preds = %84
  store i8 1, ptr %14, align 1, !tbaa !10
  %86 = load i8, ptr %14, align 1, !tbaa !10, !range !12, !noundef !13
  %87 = trunc i8 %86 to i1
  %88 = zext i1 %87 to i8
  store i8 %88, ptr %14, align 1, !tbaa !10
  br label %89

89:                                               ; preds = %85
  br label %90

90:                                               ; preds = %89
  br label %91

91:                                               ; preds = %90
  store i64 -1, ptr %11, align 8, !tbaa !3
  br label %160

92:                                               ; No predecessors!
  br label %93

93:                                               ; preds = %92
  br label %94

94:                                               ; preds = %93
  br label %95

95:                                               ; preds = %94
  br label %96

96:                                               ; preds = %95, %74
  br label %97

97:                                               ; preds = %96, %66
  br label %98

98:                                               ; preds = %97
  br label %99

99:                                               ; preds = %98
  br label %100

100:                                              ; preds = %99
  %101 = call i32 @H5CX_push(ptr noundef %12)
  %102 = icmp slt i32 %101, 0
  %103 = xor i1 %102, true
  %104 = xor i1 %103, true
  %105 = zext i1 %104 to i32
  %106 = sext i32 %105 to i64
  %107 = call i64 @llvm.expect.i64(i64 %106, i64 0)
  %108 = icmp ne i64 %107, 0
  br i1 %108, label %109, label %128

109:                                              ; preds = %100
  br label %110

110:                                              ; preds = %109
  br label %111

111:                                              ; preds = %110
  br label %112

112:                                              ; preds = %111
  %113 = load i64, ptr @H5E_FUNC_g, align 8, !tbaa !3
  %114 = load i64, ptr @H5E_CANTSET_g, align 8, !tbaa !3
  %115 = call i32 (ptr, ptr, i32, i64, i64, ptr, ...) @H5E_printf_stack(ptr noundef @.str, ptr noundef @__func__.H5Gcreate2, i32 noundef 226, i64 noundef %113, i64 noundef %114, ptr noundef @.str.3)
  br label %116

116:                                              ; preds = %112
  br label %117

117:                                              ; preds = %116
  store i8 1, ptr %14, align 1, !tbaa !10
  %118 = load i8, ptr %14, align 1, !tbaa !10, !range !12, !noundef !13
  %119 = trunc i8 %118 to i1
  %120 = zext i1 %119 to i8
  store i8 %120, ptr %14, align 1, !tbaa !10
  br label %121

121:                                              ; preds = %117
  br label %122

122:                                              ; preds = %121
  br label %123

123:                                              ; preds = %122
  store i64 -1, ptr %11, align 8, !tbaa !3
  br label %160

124:                                              ; No predecessors!
  br label %125

125:                                              ; preds = %124
  br label %126

126:                                              ; preds = %125
  br label %127

127:                                              ; preds = %126
  br label %129

128:                                              ; preds = %100
  store i8 1, ptr %13, align 1, !tbaa !10
  br label %129

129:                                              ; preds = %128, %127
  br label %130

130:                                              ; preds = %129
  br label %131

131:                                              ; preds = %130
  %132 = call i32 @H5E_clear_stack()
  %133 = load i64, ptr %6, align 8, !tbaa !3
  %134 = load ptr, ptr %7, align 8, !tbaa !7
  %135 = load i64, ptr %8, align 8, !tbaa !3
  %136 = load i64, ptr %9, align 8, !tbaa !3
  %137 = load i64, ptr %10, align 8, !tbaa !3
  %138 = call i64 @H5G__create_api_common(i64 noundef %133, ptr noundef %134, i64 noundef %135, i64 noundef %136, i64 noundef %137, ptr noundef null, ptr noundef null)
  store i64 %138, ptr %11, align 8, !tbaa !3
  %139 = icmp slt i64 %138, 0
  br i1 %139, label %140, label %159

140:                                              ; preds = %131
  br label %141

141:                                              ; preds = %140
  br label %142

142:                                              ; preds = %141
  br label %143

143:                                              ; preds = %142
  %144 = load i64, ptr @H5E_SYM_g, align 8, !tbaa !3
  %145 = load i64, ptr @H5E_CANTCREATE_g, align 8, !tbaa !3
  %146 = call i32 (ptr, ptr, i32, i64, i64, ptr, ...) @H5E_printf_stack(ptr noundef @.str, ptr noundef @__func__.H5Gcreate2, i32 noundef 230, i64 noundef %144, i64 noundef %145, ptr noundef @.str.4)
  br label %147

147:                                              ; preds = %143
  br label %148

148:                                              ; preds = %147
  store i8 1, ptr %14, align 1, !tbaa !10
  %149 = load i8, ptr %14, align 1, !tbaa !10, !range !12, !noundef !13
  %150 = trunc i8 %149 to i1
  %151 = zext i1 %150 to i8
  store i8 %151, ptr %14, align 1, !tbaa !10
  br label %152

152:                                              ; preds = %148
  br label %153

153:                                              ; preds = %152
  br label %154

154:                                              ; preds = %153
  store i64 -1, ptr %11, align 8, !tbaa !3
  br label %160

155:                                              ; No predecessors!
  br label %156

156:                                              ; preds = %155
  br label %157

157:                                              ; preds = %156
  br label %158

158:                                              ; preds = %157
  br label %159

159:                                              ; preds = %158, %131
  br label %160

160:                                              ; preds = %159, %154, %123, %91, %53
  %161 = load i8, ptr %13, align 1, !tbaa !10, !range !12, !noundef !13
  %162 = trunc i8 %161 to i1
  %163 = xor i1 %162, true
  %164 = xor i1 %163, true
  %165 = zext i1 %164 to i32
  %166 = sext i32 %165 to i64
  %167 = call i64 @llvm.expect.i64(i64 %166, i64 1)
  %168 = icmp ne i64 %167, 0
  br i1 %168, label %169, label %171

169:                                              ; preds = %160
  %170 = call i32 @H5CX_pop(i1 noundef zeroext true)
  store i8 0, ptr %13, align 1, !tbaa !10
  br label %171

171:                                              ; preds = %169, %160
  %172 = load i8, ptr %14, align 1, !tbaa !10, !range !12, !noundef !13
  %173 = trunc i8 %172 to i1
  %174 = xor i1 %173, true
  %175 = xor i1 %174, true
  %176 = zext i1 %175 to i32
  %177 = sext i32 %176 to i64
  %178 = call i64 @llvm.expect.i64(i64 %177, i64 0)
  %179 = icmp ne i64 %178, 0
  br i1 %179, label %180, label %182

180:                                              ; preds = %171
  %181 = call i32 @H5E_dump_api_stack()
  br label %182

182:                                              ; preds = %180, %171
  %183 = load i64, ptr %11, align 8, !tbaa !3
  call void @llvm.lifetime.end.p0(i64 1, ptr %14) #5
  call void @llvm.lifetime.end.p0(i64 1, ptr %13) #5
  call void @llvm.lifetime.end.p0(i64 480, ptr %12) #5
  call void @llvm.lifetime.end.p0(i64 8, ptr %11) #5
  ret i64 %183
}