; Function Attrs: nounwind uwtable
define range(i64 -1, -9223372036854775808) i64 @H5Gcreate2(i64 noundef %0, ptr noundef %1, i64 noundef %2, i64 noundef %3, i64 noundef %4) local_unnamed_addr #0 {
  %6 = alloca %struct.H5CX_node_t, align 8
  call void @llvm.lifetime.start.p0(i64 480, ptr nonnull %6) #4
  call void @llvm.memset.p0.i64(ptr noundef nonnull align 8 dereferenceable(480) %6, i8 0, i64 480, i1 false)
  %7 = load i8, ptr @H5_libinit_g, align 1, !tbaa !3, !range !7, !noundef !8
  %8 = trunc nuw i8 %7 to i1
  %9 = load i8, ptr @H5_libterm_g, align 1, !range !7
  %10 = trunc nuw i8 %9 to i1
  %11 = select i1 %8, i1 true, i1 %10
  br i1 %11, label %19, label %12, !prof !9

12:                                               ; preds = %5
  %13 = tail call i32 @H5_init_library() #4
  %14 = icmp slt i32 %13, 0
  br i1 %14, label %15, label %._crit_edge, !prof !10

._crit_edge:                                      ; preds = %12
  %.pre = load i8, ptr @H5_libterm_g, align 1, !range !7
  br label %19

15:                                               ; preds = %12
  %16 = load i64, ptr @H5E_FUNC_g, align 8, !tbaa !11
  %17 = load i64, ptr @H5E_CANTINIT_g, align 8, !tbaa !11
  %18 = tail call i32 (ptr, ptr, i32, i64, i64, ptr, ...) @H5E_printf_stack(ptr noundef nonnull @.str, ptr noundef nonnull @__func__.H5Gcreate2, i32 noundef 226, i64 noundef %16, i64 noundef %17, ptr noundef nonnull @.str.1) #4
  br label %.thread19

19:                                               ; preds = %._crit_edge, %5
  %20 = phi i8 [ %.pre, %._crit_edge ], [ %9, %5 ]
  %21 = load i8, ptr @H5G_init_g, align 1, !tbaa !3, !range !7, !noundef !8
  %22 = trunc nuw i8 %21 to i1
  %23 = trunc nuw i8 %20 to i1
  %24 = select i1 %22, i1 true, i1 %23
  br i1 %24, label %32, label %25, !prof !9

25:                                               ; preds = %19
  store i8 1, ptr @H5G_init_g, align 1, !tbaa !3
  %26 = tail call i32 @H5G__init_package() #4
  %27 = icmp slt i32 %26, 0
  br i1 %27, label %28, label %32, !prof !13

28:                                               ; preds = %25
  store i8 0, ptr @H5G_init_g, align 1, !tbaa !3
  %29 = load i64, ptr @H5E_FUNC_g, align 8, !tbaa !11
  %30 = load i64, ptr @H5E_CANTINIT_g, align 8, !tbaa !11
  %31 = tail call i32 (ptr, ptr, i32, i64, i64, ptr, ...) @H5E_printf_stack(ptr noundef nonnull @.str, ptr noundef nonnull @__func__.H5Gcreate2, i32 noundef 226, i64 noundef %29, i64 noundef %30, ptr noundef nonnull @.str.2) #4
  br label %.thread19

32:                                               ; preds = %19, %25
  %33 = call i32 @H5CX_push(ptr noundef nonnull %6) #4
  %34 = icmp slt i32 %33, 0
  br i1 %34, label %35, label %39, !prof !10

35:                                               ; preds = %32
  %36 = load i64, ptr @H5E_FUNC_g, align 8, !tbaa !11
  %37 = load i64, ptr @H5E_CANTSET_g, align 8, !tbaa !11
  %38 = call i32 (ptr, ptr, i32, i64, i64, ptr, ...) @H5E_printf_stack(ptr noundef nonnull @.str, ptr noundef nonnull @__func__.H5Gcreate2, i32 noundef 226, i64 noundef %36, i64 noundef %37, ptr noundef nonnull @.str.3) #4
  br label %.thread19

39:                                               ; preds = %32
  %40 = call i32 @H5E_clear_stack() #4
  %41 = call fastcc i64 @H5G__create_api_common(i64 noundef %0, ptr noundef %1, i64 noundef %2, i64 noundef %3, i64 noundef %4, ptr noundef null, ptr noundef null)
  %42 = icmp slt i64 %41, 0
  br i1 %42, label %.thread24, label %47, !prof !14

.thread24:                                        ; preds = %39
  %43 = load i64, ptr @H5E_SYM_g, align 8, !tbaa !11
  %44 = load i64, ptr @H5E_CANTCREATE_g, align 8, !tbaa !11
  %45 = call i32 (ptr, ptr, i32, i64, i64, ptr, ...) @H5E_printf_stack(ptr noundef nonnull @.str, ptr noundef nonnull @__func__.H5Gcreate2, i32 noundef 230, i64 noundef %43, i64 noundef %44, ptr noundef nonnull @.str.4) #4
  %46 = call i32 @H5CX_pop(i1 noundef zeroext true) #4
  br label %.thread19

47:                                               ; preds = %39
  %48 = call i32 @H5CX_pop(i1 noundef zeroext true) #4
  br label %50

.thread19:                                        ; preds = %15, %28, %35, %.thread24
  %49 = call i32 @H5E_dump_api_stack() #4
  br label %50

50:                                               ; preds = %47, %.thread19
  %.0121722 = phi i64 [ -1, %.thread19 ], [ %41, %47 ]
  call void @llvm.lifetime.end.p0(i64 480, ptr nonnull %6) #4
  ret i64 %.0121722
}